; ModuleID = '23/949.c'
source_filename = "23/949.c"
target datalayout = "e-m:e-p270:32:32-p271:32:32-p272:64:64-i64:64-f80:128-n8:16:32:64-S128"
target triple = "x86_64-pc-linux-gnu"

@.str = private unnamed_addr constant [3 x i8] c"%c\00", align 1
@.str.1 = private unnamed_addr constant [2 x i8] c" \00", align 1

; Function Attrs: noinline nounwind uwtable
define dso_local void @main() #0 {
  %1 = alloca [100 x i8], align 16
  %2 = alloca [100 x i8], align 16
  %3 = alloca i32, align 4
  %4 = alloca i32, align 4
  %5 = alloca i32, align 4
  %6 = alloca i32, align 4
  %7 = getelementptr inbounds [100 x i8], [100 x i8]* %1, i64 0, i64 0
  %8 = call i32 (i8*, ...) bitcast (i32 (...)* @gets to i32 (i8*, ...)*)(i8* %7)
  %9 = getelementptr inbounds [100 x i8], [100 x i8]* %1, i64 0, i64 0
  %10 = call i64 @strlen(i8* %9) #3
  %11 = trunc i64 %10 to i32
  store i32 %11, i32* %3, align 4
  %12 = load i32, i32* %3, align 4
  %13 = sub nsw i32 %12, 1
  store i32 %13, i32* %4, align 4
  store i32 0, i32* %5, align 4
  br label %14

14:                                               ; preds = %36, %0
  %15 = load i32, i32* %4, align 4
  %16 = sext i32 %15 to i64
  %17 = getelementptr inbounds [100 x i8], [100 x i8]* %1, i64 0, i64 %16
  %18 = load i8, i8* %17, align 1
  %19 = sext i8 %18 to i32
  %20 = icmp ne i32 %19, 32
  br i1 %20, label %21, label %24

21:                                               ; preds = %14
  %22 = load i32, i32* %4, align 4
  %23 = icmp sge i32 %22, 0
  br label %24

24:                                               ; preds = %21, %14
  %25 = phi i1 [ false, %14 ], [ %23, %21 ]
  br i1 %25, label %26, label %39

26:                                               ; preds = %24
  %27 = load i32, i32* %4, align 4
  %28 = sext i32 %27 to i64
  %29 = getelementptr inbounds [100 x i8], [100 x i8]* %1, i64 0, i64 %28
  %30 = load i8, i8* %29, align 1
  %31 = load i32, i32* %5, align 4
  %32 = sext i32 %31 to i64
  %33 = getelementptr inbounds [100 x i8], [100 x i8]* %2, i64 0, i64 %32
  store i8 %30, i8* %33, align 1
  %34 = load i32, i32* %5, align 4
  %35 = add nsw i32 %34, 1
  store i32 %35, i32* %5, align 4
  br label %36

36:                                               ; preds = %26
  %37 = load i32, i32* %4, align 4
  %38 = add nsw i32 %37, -1
  store i32 %38, i32* %4, align 4
  br label %14

39:                                               ; preds = %24
  %40 = load i32, i32* %5, align 4
  %41 = sub nsw i32 %40, 1
  store i32 %41, i32* %6, align 4
  br label %42

42:                                               ; preds = %52, %39
  %43 = load i32, i32* %6, align 4
  %44 = icmp sge i32 %43, 0
  br i1 %44, label %45, label %55

45:                                               ; preds = %42
  %46 = load i32, i32* %6, align 4
  %47 = sext i32 %46 to i64
  %48 = getelementptr inbounds [100 x i8], [100 x i8]* %2, i64 0, i64 %47
  %49 = load i8, i8* %48, align 1
  %50 = sext i8 %49 to i32
  %51 = call i32 (i8*, ...) @printf(i8* getelementptr inbounds ([3 x i8], [3 x i8]* @.str, i64 0, i64 0), i32 %50)
  br label %52

52:                                               ; preds = %45
  %53 = load i32, i32* %6, align 4
  %54 = add nsw i32 %53, -1
  store i32 %54, i32* %6, align 4
  br label %42

55:                                               ; preds = %42
  %56 = load i32, i32* %4, align 4
  %57 = add nsw i32 %56, -1
  store i32 %57, i32* %4, align 4
  br label %58

58:                                               ; preds = %104, %55
  %59 = load i32, i32* %4, align 4
  %60 = icmp sge i32 %59, 0
  br i1 %60, label %61, label %107

61:                                               ; preds = %58
  store i32 0, i32* %5, align 4
  br label %62

62:                                               ; preds = %84, %61
  %63 = load i32, i32* %4, align 4
  %64 = sext i32 %63 to i64
  %65 = getelementptr inbounds [100 x i8], [100 x i8]* %1, i64 0, i64 %64
  %66 = load i8, i8* %65, align 1
  %67 = sext i8 %66 to i32
  %68 = icmp ne i32 %67, 32
  br i1 %68, label %69, label %72

69:                                               ; preds = %62
  %70 = load i32, i32* %4, align 4
  %71 = icmp sge i32 %70, 0
  br label %72

72:                                               ; preds = %69, %62
  %73 = phi i1 [ false, %62 ], [ %71, %69 ]
  br i1 %73, label %74, label %87

74:                                               ; preds = %72
  %75 = load i32, i32* %4, align 4
  %76 = sext i32 %75 to i64
  %77 = getelementptr inbounds [100 x i8], [100 x i8]* %1, i64 0, i64 %76
  %78 = load i8, i8* %77, align 1
  %79 = load i32, i32* %5, align 4
  %80 = sext i32 %79 to i64
  %81 = getelementptr inbounds [100 x i8], [100 x i8]* %2, i64 0, i64 %80
  store i8 %78, i8* %81, align 1
  %82 = load i32, i32* %5, align 4
  %83 = add nsw i32 %82, 1
  store i32 %83, i32* %5, align 4
  br label %84

84:                                               ; preds = %74
  %85 = load i32, i32* %4, align 4
  %86 = add nsw i32 %85, -1
  store i32 %86, i32* %4, align 4
  br label %62

87:                                               ; preds = %72
  %88 = call i32 (i8*, ...) @printf(i8* getelementptr inbounds ([2 x i8], [2 x i8]* @.str.1, i64 0, i64 0))
  %89 = load i32, i32* %5, align 4
  %90 = sub nsw i32 %89, 1
  store i32 %90, i32* %6, align 4
  br label %91

91:                                               ; preds = %101, %87
  %92 = load i32, i32* %6, align 4
  %93 = icmp sge i32 %92, 0
  br i1 %93, label %94, label %104

94:                                               ; preds = %91
  %95 = load i32, i32* %6, align 4
  %96 = sext i32 %95 to i64
  %97 = getelementptr inbounds [100 x i8], [100 x i8]* %2, i64 0, i64 %96
  %98 = load i8, i8* %97, align 1
  %99 = sext i8 %98 to i32
  %100 = call i32 (i8*, ...) @printf(i8* getelementptr inbounds ([3 x i8], [3 x i8]* @.str, i64 0, i64 0), i32 %99)
  br label %101

101:                                              ; preds = %94
  %102 = load i32, i32* %6, align 4
  %103 = add nsw i32 %102, -1
  store i32 %103, i32* %6, align 4
  br label %91

104:                                              ; preds = %91
  %105 = load i32, i32* %4, align 4
  %106 = add nsw i32 %105, -1
  store i32 %106, i32* %4, align 4
  br label %58

107:                                              ; preds = %58
  ret void
}

declare dso_local i32 @gets(...) #1

; Function Attrs: nounwind readonly
declare dso_local i64 @strlen(i8*) #2

declare dso_local i32 @printf(i8*, ...) #1


!llvm.module.flags = !{!0}
!llvm.ident = !{!1}

!0 = !{i32 1, !"wchar_size", i32 4}
!1 = !{!"clang version 10.0.0-4ubuntu1 "}
